target datalayout = "e-m:e-p270:32:32-p271:32:32-p272:64:64-i64:64-i128:128-f80:128-n8:16:32:64-S128"
target triple = "x86_64-pc-linux-gnu"

%"class.cv::bioinspired::MagnoRetinaFilter" = type <{ ptr, %"class.cv::bioinspired::BasicRetinaFilter", %"class.std::valarray", %"class.std::valarray", %"class.std::valarray", %"class.std::valarray", %"class.std::valarray", %"class.std::valarray", %"class.std::valarray", %"class.std::valarray", ptr, ptr, float, [4 x i8] }>
%"class.cv::bioinspired::BasicRetinaFilter" = type { %"class.cv::bioinspired::TemplateBuffer", %"class.std::valarray", i32, i32, %"class.std::valarray", %"class.std::valarray", %"class.std::valarray", float, float, float, float, float, float, float, float }
%"class.cv::bioinspired::TemplateBuffer" = type { ptr, %"class.std::valarray", i64, i64, i64, i64, i64 }
%"class.std::valarray" = type { i64, ptr }
%"class.cv::Range" = type { i32, i32 }
%"class.cv::bioinspired::MagnoRetinaFilter::Parallel_amacrineCellsComputing" = type <{ %"class.cv::ParallelLoopBody", ptr, ptr, ptr, ptr, ptr, ptr, float, [4 x i8] }>
%"class.cv::ParallelLoopBody" = type { ptr }

@_ZTVN2cv16ParallelLoopBodyE = available_externally unnamed_addr constant { [5 x ptr] } { [5 x ptr] [ptr null, ptr @_ZTIN2cv16ParallelLoopBodyE, ptr @_ZN2cv16ParallelLoopBodyD1Ev, ptr @_ZN2cv16ParallelLoopBodyD0Ev, ptr @__cxa_pure_virtual] }, align 8

; Function Attrs: inlinehint mustprogress nounwind uwtable
define linkonce_odr hidden void @_ZN2cv16ParallelLoopBodyC2Ev(ptr noundef nonnull align 8 dereferenceable(8) %0) unnamed_addr #6 comdat align 2 {
  %2 = alloca ptr, align 8
  store ptr %0, ptr %2, align 8, !tbaa !52
  %3 = load ptr, ptr %2, align 8
  store ptr getelementptr inbounds inrange(-16, 24) ({ [5 x ptr] }, ptr @_ZTVN2cv16ParallelLoopBodyE, i32 0, i32 0, i32 2), ptr %3, align 8, !tbaa !10
  ret void
}

; Function Attrs: mustprogress nounwind uwtable
define linkonce_odr hidden void @_ZN2cv11bioinspired17MagnoRetinaFilter31Parallel_amacrineCellsComputingC2EPKfS4_PfS5_S5_S5_f(ptr noundef nonnull align 8 dereferenceable(60) %0, ptr noundef %1, ptr noundef %2, ptr noundef %3, ptr noundef %4, ptr noundef %5, ptr noundef %6, float noundef %7) unnamed_addr #7 comdat align 2 {
  %9 = alloca ptr, align 8
  %10 = alloca ptr, align 8
  %11 = alloca ptr, align 8
  %12 = alloca ptr, align 8
  %13 = alloca ptr, align 8
  %14 = alloca ptr, align 8
  %15 = alloca ptr, align 8
  %16 = alloca float, align 4
  store ptr %0, ptr %9, align 8, !tbaa !39
  store ptr %1, ptr %10, align 8, !tbaa !30
  store ptr %2, ptr %11, align 8, !tbaa !30
  store ptr %3, ptr %12, align 8, !tbaa !30
  store ptr %4, ptr %13, align 8, !tbaa !30
  store ptr %5, ptr %14, align 8, !tbaa !30
  store ptr %6, ptr %15, align 8, !tbaa !30
  store float %7, ptr %16, align 4, !tbaa !27
  %17 = load ptr, ptr %9, align 8
  call void @_ZN2cv16ParallelLoopBodyC2Ev(ptr noundef nonnull align 8 dereferenceable(8) %17) #3
  store ptr getelementptr inbounds inrange(-16, 24) ({ [5 x ptr] }, ptr @_ZTVN2cv11bioinspired17MagnoRetinaFilter31Parallel_amacrineCellsComputingE, i32 0, i32 0, i32 2), ptr %17, align 8, !tbaa !10
  %18 = getelementptr inbounds nuw %"class.cv::bioinspired::MagnoRetinaFilter::Parallel_amacrineCellsComputing", ptr %17, i32 0, i32 1
  %19 = load ptr, ptr %10, align 8, !tbaa !30
  store ptr %19, ptr %18, align 8, !tbaa !41
  %20 = getelementptr inbounds nuw %"class.cv::bioinspired::MagnoRetinaFilter::Parallel_amacrineCellsComputing", ptr %17, i32 0, i32 2
  %21 = load ptr, ptr %11, align 8, !tbaa !30
  store ptr %21, ptr %20, align 8, !tbaa !44
  %22 = getelementptr inbounds nuw %"class.cv::bioinspired::MagnoRetinaFilter::Parallel_amacrineCellsComputing", ptr %17, i32 0, i32 3
  %23 = load ptr, ptr %12, align 8, !tbaa !30
  store ptr %23, ptr %22, align 8, !tbaa !45
  %24 = getelementptr inbounds nuw %"class.cv::bioinspired::MagnoRetinaFilter::Parallel_amacrineCellsComputing", ptr %17, i32 0, i32 4
  %25 = load ptr, ptr %13, align 8, !tbaa !30
  store ptr %25, ptr %24, align 8, !tbaa !46
  %26 = getelementptr inbounds nuw %"class.cv::bioinspired::MagnoRetinaFilter::Parallel_amacrineCellsComputing", ptr %17, i32 0, i32 5
  %27 = load ptr, ptr %14, align 8, !tbaa !30
  store ptr %27, ptr %26, align 8, !tbaa !47
  %28 = getelementptr inbounds nuw %"class.cv::bioinspired::MagnoRetinaFilter::Parallel_amacrineCellsComputing", ptr %17, i32 0, i32 6
  %29 = load ptr, ptr %15, align 8, !tbaa !30
  store ptr %29, ptr %28, align 8, !tbaa !48
  %30 = getelementptr inbounds nuw %"class.cv::bioinspired::MagnoRetinaFilter::Parallel_amacrineCellsComputing", ptr %17, i32 0, i32 7
  %31 = load float, ptr %16, align 4, !tbaa !27
  store float %31, ptr %30, align 8, !tbaa !49
  ret void
}

; Function Attrs: inlinehint mustprogress nounwind uwtable
define linkonce_odr hidden void @_ZN2cv5RangeC2Eii(ptr noundef nonnull align 4 dereferenceable(8) %0, i32 noundef %1, i32 noundef %2) unnamed_addr #6 comdat align 2 {
  %4 = alloca ptr, align 8
  %5 = alloca i32, align 4
  %6 = alloca i32, align 4
  store ptr %0, ptr %4, align 8, !tbaa !34
  store i32 %1, ptr %5, align 4, !tbaa !8
  store i32 %2, ptr %6, align 4, !tbaa !8
  %7 = load ptr, ptr %4, align 8
  %8 = getelementptr inbounds nuw %"class.cv::Range", ptr %7, i32 0, i32 0
  %9 = load i32, ptr %5, align 4, !tbaa !8
  store i32 %9, ptr %8, align 4, !tbaa !36
  %10 = getelementptr inbounds nuw %"class.cv::Range", ptr %7, i32 0, i32 1
  %11 = load i32, ptr %6, align 4, !tbaa !8
  store i32 %11, ptr %10, align 4, !tbaa !38
  ret void
}

; Function Attrs: inlinehint mustprogress nounwind uwtable
define linkonce_odr hidden noundef i32 @_ZN2cv11bioinspired14TemplateBufferIfE11getNBpixelsEv(ptr noundef nonnull align 8 dereferenceable(64) %0) #6 comdat align 2 {
  %2 = alloca ptr, align 8
  store ptr %0, ptr %2, align 8, !tbaa !32
  %3 = load ptr, ptr %2, align 8
  %4 = getelementptr inbounds nuw %"class.cv::bioinspired::TemplateBuffer", ptr %3, i32 0, i32 5
  %5 = load i64, ptr %4, align 8, !tbaa !33
  %6 = trunc i64 %5 to i32
  ret i32 %6
}

; Function Attrs: inlinehint mustprogress nounwind uwtable
define linkonce_odr hidden noundef nonnull align 4 dereferenceable(4) ptr @_ZNSt8valarrayIfEixEm(ptr noundef nonnull align 8 dereferenceable(16) %0, i64 noundef %1) #6 comdat align 2 {
  %3 = alloca ptr, align 8
  %4 = alloca i64, align 8
  store ptr %0, ptr %3, align 8, !tbaa !23
  store i64 %1, ptr %4, align 8, !tbaa !24
  %5 = load ptr, ptr %3, align 8
  %6 = getelementptr inbounds nuw %"class.std::valarray", ptr %5, i32 0, i32 1
  %7 = load ptr, ptr %6, align 8, !tbaa !26
  %8 = load i64, ptr %4, align 8, !tbaa !24
  %9 = getelementptr inbounds nuw float, ptr %7, i64 %8
  ret ptr %9
}

; Function Attrs: mustprogress uwtable
define hidden void @_ZN2cv11bioinspired17MagnoRetinaFilter23_amacrineCellsComputingEPKfS3_(ptr noundef nonnull align 8 dereferenceable(324) %0, ptr noundef %1, ptr noundef %2) #4 align 2 personality ptr @__gxx_personality_v0 {
  %4 = alloca ptr, align 8
  %5 = alloca ptr, align 8
  %6 = alloca ptr, align 8
  %7 = alloca %"class.cv::Range", align 4
  %8 = alloca %"class.cv::bioinspired::MagnoRetinaFilter::Parallel_amacrineCellsComputing", align 8
  %9 = alloca ptr, align 8
  %10 = alloca i32, align 4
  store ptr %0, ptr %4, align 8, !tbaa !3
  store ptr %1, ptr %5, align 8, !tbaa !30
  store ptr %2, ptr %6, align 8, !tbaa !30
  %11 = load ptr, ptr %4, align 8
  call void @llvm.lifetime.start.p0(i64 8, ptr %7) #3
  %12 = getelementptr inbounds i8, ptr %11, i64 8
  %13 = getelementptr inbounds nuw %"class.cv::bioinspired::BasicRetinaFilter", ptr %12, i32 0, i32 0
  %14 = call noundef i32 @_ZN2cv11bioinspired14TemplateBufferIfE11getNBpixelsEv(ptr noundef nonnull align 8 dereferenceable(64) %13)
  call void @_ZN2cv5RangeC2Eii(ptr noundef nonnull align 4 dereferenceable(8) %7, i32 noundef 0, i32 noundef %14)
  call void @llvm.lifetime.start.p0(i64 64, ptr %8) #3
  %15 = load ptr, ptr %5, align 8, !tbaa !30
  %16 = load ptr, ptr %6, align 8, !tbaa !30
  %17 = getelementptr inbounds nuw %"class.cv::bioinspired::MagnoRetinaFilter", ptr %11, i32 0, i32 2
  %18 = call noundef nonnull align 4 dereferenceable(4) ptr @_ZNSt8valarrayIfEixEm(ptr noundef nonnull align 8 dereferenceable(16) %17, i64 noundef 0) #3
  %19 = getelementptr inbounds nuw %"class.cv::bioinspired::MagnoRetinaFilter", ptr %11, i32 0, i32 3
  %20 = call noundef nonnull align 4 dereferenceable(4) ptr @_ZNSt8valarrayIfEixEm(ptr noundef nonnull align 8 dereferenceable(16) %19, i64 noundef 0) #3
  %21 = getelementptr inbounds nuw %"class.cv::bioinspired::MagnoRetinaFilter", ptr %11, i32 0, i32 4
  %22 = call noundef nonnull align 4 dereferenceable(4) ptr @_ZNSt8valarrayIfEixEm(ptr noundef nonnull align 8 dereferenceable(16) %21, i64 noundef 0) #3
  %23 = getelementptr inbounds nuw %"class.cv::bioinspired::MagnoRetinaFilter", ptr %11, i32 0, i32 5
  %24 = call noundef nonnull align 4 dereferenceable(4) ptr @_ZNSt8valarrayIfEixEm(ptr noundef nonnull align 8 dereferenceable(16) %23, i64 noundef 0) #3
  %25 = getelementptr inbounds nuw %"class.cv::bioinspired::MagnoRetinaFilter", ptr %11, i32 0, i32 12
  %26 = load float, ptr %25, align 8, !tbaa !31
  call void @_ZN2cv11bioinspired17MagnoRetinaFilter31Parallel_amacrineCellsComputingC2EPKfS4_PfS5_S5_S5_f(ptr noundef nonnull align 8 dereferenceable(60) %8, ptr noundef %15, ptr noundef %16, ptr noundef %18, ptr noundef %20, ptr noundef %22, ptr noundef %24, float noundef %26)
  invoke void @_ZN2cv13parallel_for_ERKNS_5RangeERKNS_16ParallelLoopBodyEd(ptr noundef nonnull align 4 dereferenceable(8) %7, ptr noundef nonnull align 8 dereferenceable(8) %8, double noundef -1.000000e+00)
          to label %27 unwind label %28

27:                                               ; preds = %3
  call void @_ZN2cv16ParallelLoopBodyD2Ev(ptr noundef nonnull align 8 dereferenceable(60) %8) #3
  call void @llvm.lifetime.end.p0(i64 64, ptr %8) #3
  call void @llvm.lifetime.end.p0(i64 8, ptr %7) #3
  ret void

28:                                               ; preds = %3
  %29 = landingpad { ptr, i32 }
          cleanup
  %30 = extractvalue { ptr, i32 } %29, 0
  store ptr %30, ptr %9, align 8
  %31 = extractvalue { ptr, i32 } %29, 1
  store i32 %31, ptr %10, align 4
  call void @_ZN2cv16ParallelLoopBodyD2Ev(ptr noundef nonnull align 8 dereferenceable(60) %8) #3
  call void @llvm.lifetime.end.p0(i64 64, ptr %8) #3
  call void @llvm.lifetime.end.p0(i64 8, ptr %7) #3
  br label %32

32:                                               ; preds = %28
  %33 = load ptr, ptr %9, align 8
  %34 = load i32, ptr %10, align 4
  %35 = insertvalue { ptr, i32 } poison, ptr %33, 0
  %36 = insertvalue { ptr, i32 } %35, i32 %34, 1
  resume { ptr, i32 } %36
}

; Function Attrs: inlinehint mustprogress nounwind uwtable
define linkonce_odr hidden noundef ptr @_ZN2cv8get_dataIfEEPKT_RKSt8valarrayIS1_E(ptr noundef nonnull align 8 dereferenceable(16) %0) #6 comdat {
  %2 = alloca ptr, align 8
  store ptr %0, ptr %2, align 8, !tbaa !23
  %3 = load ptr, ptr %2, align 8, !tbaa !23
  %4 = call noundef nonnull align 4 dereferenceable(4) ptr @_ZNSt8valarrayIfEixEm(ptr noundef nonnull align 8 dereferenceable(16) %3, i64 noundef 0) #3
  ret ptr %4
}

; Function Attrs: mustprogress uwtable
define hidden noundef nonnull align 8 dereferenceable(16) ptr @_ZN2cv11bioinspired17MagnoRetinaFilter9runFilterERKSt8valarrayIfES5_(ptr noundef nonnull align 8 dereferenceable(324) %0, ptr noundef nonnull align 8 dereferenceable(16) %1, ptr noundef nonnull align 8 dereferenceable(16) %2) #4 align 2 {
  %4 = alloca ptr, align 8
  %5 = alloca ptr, align 8
  %6 = alloca ptr, align 8
  %7 = alloca ptr, align 8
  %8 = alloca ptr, align 8
  %9 = alloca ptr, align 8
  %10 = alloca i32, align 4
  store ptr %0, ptr %4, align 8, !tbaa !3
  store ptr %1, ptr %5, align 8, !tbaa !23
  store ptr %2, ptr %6, align 8, !tbaa !23
  %11 = load ptr, ptr %4, align 8
  %12 = load ptr, ptr %5, align 8, !tbaa !23
  %13 = call noundef ptr @_ZN2cv8get_dataIfEEPKT_RKSt8valarrayIS1_E(ptr noundef nonnull align 8 dereferenceable(16) %12)
  %14 = load ptr, ptr %6, align 8, !tbaa !23
  %15 = call noundef ptr @_ZN2cv8get_dataIfEEPKT_RKSt8valarrayIS1_E(ptr noundef nonnull align 8 dereferenceable(16) %14)
  call void @_ZN2cv11bioinspired17MagnoRetinaFilter23_amacrineCellsComputingEPKfS3_(ptr noundef nonnull align 8 dereferenceable(324) %11, ptr noundef %13, ptr noundef %15)
  %16 = getelementptr inbounds i8, ptr %11, i64 8
  %17 = getelementptr inbounds nuw %"class.cv::bioinspired::MagnoRetinaFilter", ptr %11, i32 0, i32 4
  %18 = call noundef nonnull align 4 dereferenceable(4) ptr @_ZNSt8valarrayIfEixEm(ptr noundef nonnull align 8 dereferenceable(16) %17, i64 noundef 0) #3
  %19 = getelementptr inbounds nuw %"class.cv::bioinspired::MagnoRetinaFilter", ptr %11, i32 0, i32 6
  %20 = call noundef nonnull align 4 dereferenceable(4) ptr @_ZNSt8valarrayIfEixEm(ptr noundef nonnull align 8 dereferenceable(16) %19, i64 noundef 0) #3
  call void @_ZN2cv11bioinspired17BasicRetinaFilter23_spatiotemporalLPfilterEPKfPfj(ptr noundef nonnull align 8 dereferenceable(168) %16, ptr noundef %18, ptr noundef %20, i32 noundef 0)
  %21 = getelementptr inbounds i8, ptr %11, i64 8
  %22 = getelementptr inbounds nuw %"class.cv::bioinspired::MagnoRetinaFilter", ptr %11, i32 0, i32 5
  %23 = call noundef nonnull align 4 dereferenceable(4) ptr @_ZNSt8valarrayIfEixEm(ptr noundef nonnull align 8 dereferenceable(16) %22, i64 noundef 0) #3
  %24 = getelementptr inbounds nuw %"class.cv::bioinspired::MagnoRetinaFilter", ptr %11, i32 0, i32 7
  %25 = call noundef nonnull align 4 dereferenceable(4) ptr @_ZNSt8valarrayIfEixEm(ptr noundef nonnull align 8 dereferenceable(16) %24, i64 noundef 0) #3
  call void @_ZN2cv11bioinspired17BasicRetinaFilter23_spatiotemporalLPfilterEPKfPfj(ptr noundef nonnull align 8 dereferenceable(168) %21, ptr noundef %23, ptr noundef %25, i32 noundef 0)
  %26 = getelementptr inbounds i8, ptr %11, i64 8
  %27 = getelementptr inbounds nuw %"class.cv::bioinspired::MagnoRetinaFilter", ptr %11, i32 0, i32 6
  %28 = call noundef nonnull align 4 dereferenceable(4) ptr @_ZNSt8valarrayIfEixEm(ptr noundef nonnull align 8 dereferenceable(16) %27, i64 noundef 0) #3
  %29 = getelementptr inbounds nuw %"class.cv::bioinspired::MagnoRetinaFilter", ptr %11, i32 0, i32 8
  %30 = call noundef nonnull align 4 dereferenceable(4) ptr @_ZNSt8valarrayIfEixEm(ptr noundef nonnull align 8 dereferenceable(16) %29, i64 noundef 0) #3
  call void @_ZN2cv11bioinspired17BasicRetinaFilter23_spatiotemporalLPfilterEPKfPfj(ptr noundef nonnull align 8 dereferenceable(168) %26, ptr noundef %28, ptr noundef %30, i32 noundef 1)
  %31 = getelementptr inbounds i8, ptr %11, i64 8
  %32 = getelementptr inbounds nuw %"class.cv::bioinspired::MagnoRetinaFilter", ptr %11, i32 0, i32 6
  %33 = call noundef nonnull align 4 dereferenceable(4) ptr @_ZNSt8valarrayIfEixEm(ptr noundef nonnull align 8 dereferenceable(16) %32, i64 noundef 0) #3
  %34 = getelementptr inbounds nuw %"class.cv::bioinspired::MagnoRetinaFilter", ptr %11, i32 0, i32 8
  %35 = call noundef nonnull align 4 dereferenceable(4) ptr @_ZNSt8valarrayIfEixEm(ptr noundef nonnull align 8 dereferenceable(16) %34, i64 noundef 0) #3
  call void @_ZN2cv11bioinspired17BasicRetinaFilter25_localLuminanceAdaptationEPfPKf(ptr noundef nonnull align 8 dereferenceable(168) %31, ptr noundef %33, ptr noundef %35)
  %36 = getelementptr inbounds i8, ptr %11, i64 8
  %37 = getelementptr inbounds nuw %"class.cv::bioinspired::MagnoRetinaFilter", ptr %11, i32 0, i32 7
  %38 = call noundef nonnull align 4 dereferenceable(4) ptr @_ZNSt8valarrayIfEixEm(ptr noundef nonnull align 8 dereferenceable(16) %37, i64 noundef 0) #3
  %39 = getelementptr inbounds nuw %"class.cv::bioinspired::MagnoRetinaFilter", ptr %11, i32 0, i32 9
  %40 = call noundef nonnull align 4 dereferenceable(4) ptr @_ZNSt8valarrayIfEixEm(ptr noundef nonnull align 8 dereferenceable(16) %39, i64 noundef 0) #3
  call void @_ZN2cv11bioinspired17BasicRetinaFilter23_spatiotemporalLPfilterEPKfPfj(ptr noundef nonnull align 8 dereferenceable(168) %36, ptr noundef %38, ptr noundef %40, i32 noundef 1)
  %41 = getelementptr inbounds i8, ptr %11, i64 8
  %42 = getelementptr inbounds nuw %"class.cv::bioinspired::MagnoRetinaFilter", ptr %11, i32 0, i32 7
  %43 = call noundef nonnull align 4 dereferenceable(4) ptr @_ZNSt8valarrayIfEixEm(ptr noundef nonnull align 8 dereferenceable(16) %42, i64 noundef 0) #3
  %44 = getelementptr inbounds nuw %"class.cv::bioinspired::MagnoRetinaFilter", ptr %11, i32 0, i32 9
  %45 = call noundef nonnull align 4 dereferenceable(4) ptr @_ZNSt8valarrayIfEixEm(ptr noundef nonnull align 8 dereferenceable(16) %44, i64 noundef 0) #3
  call void @_ZN2cv11bioinspired17BasicRetinaFilter25_localLuminanceAdaptationEPfPKf(ptr noundef nonnull align 8 dereferenceable(168) %41, ptr noundef %43, ptr noundef %45)
  call void @llvm.lifetime.start.p0(i64 8, ptr %7) #3
  %46 = getelementptr inbounds nuw %"class.cv::bioinspired::MagnoRetinaFilter", ptr %11, i32 0, i32 10
  %47 = load ptr, ptr %46, align 8, !tbaa !12
  %48 = getelementptr inbounds i8, ptr %47, i64 8
  %49 = call noundef nonnull align 4 dereferenceable(4) ptr @_ZNSt8valarrayIfEixEm(ptr noundef nonnull align 8 dereferenceable(16) %48, i64 noundef 0) #3
  store ptr %49, ptr %7, align 8, !tbaa !30
  call void @llvm.lifetime.start.p0(i64 8, ptr %8) #3
  %50 = getelementptr inbounds nuw %"class.cv::bioinspired::MagnoRetinaFilter", ptr %11, i32 0, i32 6
  %51 = call noundef nonnull align 4 dereferenceable(4) ptr @_ZNSt8valarrayIfEixEm(ptr noundef nonnull align 8 dereferenceable(16) %50, i64 noundef 0) #3
  store ptr %51, ptr %8, align 8, !tbaa !30
  call void @llvm.lifetime.start.p0(i64 8, ptr %9) #3
  %52 = getelementptr inbounds nuw %"class.cv::bioinspired::MagnoRetinaFilter", ptr %11, i32 0, i32 7
  %53 = call noundef nonnull align 4 dereferenceable(4) ptr @_ZNSt8valarrayIfEixEm(ptr noundef nonnull align 8 dereferenceable(16) %52, i64 noundef 0) #3
  store ptr %53, ptr %9, align 8, !tbaa !30
  call void @llvm.lifetime.start.p0(i64 4, ptr %10) #3
  store i32 0, ptr %10, align 4, !tbaa !8
  br label %54

54:                                               ; preds = %71, %3
  %55 = load i32, ptr %10, align 4, !tbaa !8
  %56 = getelementptr inbounds i8, ptr %11, i64 8
  %57 = getelementptr inbounds nuw %"class.cv::bioinspired::BasicRetinaFilter", ptr %56, i32 0, i32 0
  %58 = call noundef i32 @_ZN2cv11bioinspired14TemplateBufferIfE11getNBpixelsEv(ptr noundef nonnull align 8 dereferenceable(64) %57)
  %59 = icmp ult i32 %55, %58
  br i1 %59, label %61, label %60

60:                                               ; preds = %54
  call void @llvm.lifetime.end.p0(i64 4, ptr %10) #3
  br label %74

61:                                               ; preds = %54
  %62 = load ptr, ptr %8, align 8, !tbaa !30
  %63 = getelementptr inbounds nuw float, ptr %62, i32 1
  store ptr %63, ptr %8, align 8, !tbaa !30
  %64 = load float, ptr %62, align 4, !tbaa !27
  %65 = load ptr, ptr %9, align 8, !tbaa !30
  %66 = getelementptr inbounds nuw float, ptr %65, i32 1
  store ptr %66, ptr %9, align 8, !tbaa !30
  %67 = load float, ptr %65, align 4, !tbaa !27
  %68 = fadd float %64, %67
  %69 = load ptr, ptr %7, align 8, !tbaa !30
  %70 = getelementptr inbounds nuw float, ptr %69, i32 1
  store ptr %70, ptr %7, align 8, !tbaa !30
  store float %68, ptr %69, align 4, !tbaa !27
  br label %71

71:                                               ; preds = %61
  %72 = load i32, ptr %10, align 4, !tbaa !8
  %73 = add i32 %72, 1
  store i32 %73, ptr %10, align 4, !tbaa !8
  br label %54, !llvm.loop !50

74:                                               ; preds = %60
  %75 = getelementptr inbounds nuw %"class.cv::bioinspired::MagnoRetinaFilter", ptr %11, i32 0, i32 10
  %76 = load ptr, ptr %75, align 8, !tbaa !12
  %77 = getelementptr inbounds i8, ptr %76, i64 8
  call void @llvm.lifetime.end.p0(i64 8, ptr %9) #3
  call void @llvm.lifetime.end.p0(i64 8, ptr %8) #3
  call void @llvm.lifetime.end.p0(i64 8, ptr %7) #3
  ret ptr %77
}