; Function Attrs: mustprogress uwtable
define hidden noundef nonnull align 8 dereferenceable(16) ptr @_ZN2cv11bioinspired17MagnoRetinaFilter9runFilterERKSt8valarrayIfES5_(ptr noundef nonnull align 8 dereferenceable(324) %0, ptr noundef nonnull readonly align 8 captures(none) dereferenceable(16) %1, ptr noundef nonnull readonly align 8 captures(none) dereferenceable(16) %2) local_unnamed_addr #3 align 2 personality ptr @__gxx_personality_v0 {
  %4 = alloca %"class.cv::Range", align 4
  %5 = alloca %"class.cv::bioinspired::MagnoRetinaFilter::Parallel_amacrineCellsComputing", align 8
  %6 = getelementptr inbounds nuw i8, ptr %1, i64 8
  %7 = load ptr, ptr %6, align 8, !tbaa !12
  %8 = getelementptr inbounds nuw i8, ptr %2, i64 8
  %9 = load ptr, ptr %8, align 8, !tbaa !12
  call void @llvm.lifetime.start.p0(i64 8, ptr nonnull %4) #14
  %10 = getelementptr inbounds nuw i8, ptr %0, i64 56
  %11 = load i64, ptr %10, align 8, !tbaa !55
  %12 = trunc i64 %11 to i32
  store i32 0, ptr %4, align 4, !tbaa !56
  %13 = getelementptr inbounds nuw i8, ptr %4, i64 4
  store i32 %12, ptr %13, align 4, !tbaa !58
  call void @llvm.lifetime.start.p0(i64 64, ptr nonnull %5) #14
  %14 = getelementptr inbounds nuw i8, ptr %0, i64 184
  %15 = load ptr, ptr %14, align 8, !tbaa !12
  %16 = getelementptr inbounds nuw i8, ptr %0, i64 200
  %17 = load ptr, ptr %16, align 8, !tbaa !12
  %18 = getelementptr inbounds nuw i8, ptr %0, i64 216
  %19 = load ptr, ptr %18, align 8, !tbaa !12
  %20 = getelementptr inbounds nuw i8, ptr %0, i64 232
  %21 = load ptr, ptr %20, align 8, !tbaa !12
  %22 = getelementptr inbounds nuw i8, ptr %0, i64 320
  %23 = load float, ptr %22, align 8, !tbaa !54
  store ptr getelementptr inbounds nuw inrange(-16, 24) (i8, ptr @_ZTVN2cv11bioinspired17MagnoRetinaFilter31Parallel_amacrineCellsComputingE, i64 16), ptr %5, align 8, !tbaa !3
  %24 = getelementptr inbounds nuw i8, ptr %5, i64 8
  store ptr %7, ptr %24, align 8, !tbaa !59
  %25 = getelementptr inbounds nuw i8, ptr %5, i64 16
  store ptr %9, ptr %25, align 8, !tbaa !62
  %26 = getelementptr inbounds nuw i8, ptr %5, i64 24
  store ptr %15, ptr %26, align 8, !tbaa !63
  %27 = getelementptr inbounds nuw i8, ptr %5, i64 32
  store ptr %17, ptr %27, align 8, !tbaa !64
  %28 = getelementptr inbounds nuw i8, ptr %5, i64 40
  store ptr %19, ptr %28, align 8, !tbaa !65
  %29 = getelementptr inbounds nuw i8, ptr %5, i64 48
  store ptr %21, ptr %29, align 8, !tbaa !66
  %30 = getelementptr inbounds nuw i8, ptr %5, i64 56
  store float %23, ptr %30, align 8, !tbaa !67
  invoke void @_ZN2cv13parallel_for_ERKNS_5RangeERKNS_16ParallelLoopBodyEd(ptr noundef nonnull align 4 dereferenceable(8) %4, ptr noundef nonnull align 8 dereferenceable(8) %5, double noundef -1.000000e+00)
          to label %_ZN2cv11bioinspired17MagnoRetinaFilter23_amacrineCellsComputingEPKfS3_.exit unwind label %31

31:                                               ; preds = %3
  %32 = landingpad { ptr, i32 }
          cleanup
  call void @_ZN2cv16ParallelLoopBodyD2Ev(ptr noundef nonnull align 8 dereferenceable(60) %5) #14
  call void @llvm.lifetime.end.p0(i64 64, ptr nonnull %5) #14
  call void @llvm.lifetime.end.p0(i64 8, ptr nonnull %4) #14
  resume { ptr, i32 } %32

_ZN2cv11bioinspired17MagnoRetinaFilter23_amacrineCellsComputingEPKfS3_.exit: ; preds = %3
  call void @_ZN2cv16ParallelLoopBodyD2Ev(ptr noundef nonnull align 8 dereferenceable(60) %5) #14
  call void @llvm.lifetime.end.p0(i64 64, ptr nonnull %5) #14
  call void @llvm.lifetime.end.p0(i64 8, ptr nonnull %4) #14
  %33 = getelementptr inbounds nuw i8, ptr %0, i64 8
  %34 = load ptr, ptr %18, align 8, !tbaa !12
  %35 = getelementptr inbounds nuw i8, ptr %0, i64 248
  %36 = load ptr, ptr %35, align 8, !tbaa !12
  call void @_ZN2cv11bioinspired17BasicRetinaFilter23_spatiotemporalLPfilterEPKfPfj(ptr noundef nonnull align 8 dereferenceable(168) %33, ptr noundef nonnull %34, ptr noundef nonnull %36, i32 noundef 0)
  %37 = load ptr, ptr %20, align 8, !tbaa !12
  %38 = getelementptr inbounds nuw i8, ptr %0, i64 264
  %39 = load ptr, ptr %38, align 8, !tbaa !12
  call void @_ZN2cv11bioinspired17BasicRetinaFilter23_spatiotemporalLPfilterEPKfPfj(ptr noundef nonnull align 8 dereferenceable(168) %33, ptr noundef nonnull %37, ptr noundef nonnull %39, i32 noundef 0)
  %40 = load ptr, ptr %35, align 8, !tbaa !12
  %41 = getelementptr inbounds nuw i8, ptr %0, i64 280
  %42 = load ptr, ptr %41, align 8, !tbaa !12
  call void @_ZN2cv11bioinspired17BasicRetinaFilter23_spatiotemporalLPfilterEPKfPfj(ptr noundef nonnull align 8 dereferenceable(168) %33, ptr noundef nonnull %40, ptr noundef nonnull %42, i32 noundef 1)
  %43 = load ptr, ptr %35, align 8, !tbaa !12
  %44 = load ptr, ptr %41, align 8, !tbaa !12
  call void @_ZN2cv11bioinspired17BasicRetinaFilter25_localLuminanceAdaptationEPfPKf(ptr noundef nonnull align 8 dereferenceable(168) %33, ptr noundef nonnull %43, ptr noundef nonnull %44)
  %45 = load ptr, ptr %38, align 8, !tbaa !12
  %46 = getelementptr inbounds nuw i8, ptr %0, i64 296
  %47 = load ptr, ptr %46, align 8, !tbaa !12
  call void @_ZN2cv11bioinspired17BasicRetinaFilter23_spatiotemporalLPfilterEPKfPfj(ptr noundef nonnull align 8 dereferenceable(168) %33, ptr noundef nonnull %45, ptr noundef nonnull %47, i32 noundef 1)
  %48 = load ptr, ptr %38, align 8, !tbaa !12
  %49 = load ptr, ptr %46, align 8, !tbaa !12
  call void @_ZN2cv11bioinspired17BasicRetinaFilter25_localLuminanceAdaptationEPfPKf(ptr noundef nonnull align 8 dereferenceable(168) %33, ptr noundef nonnull %48, ptr noundef nonnull %49)
  %50 = getelementptr inbounds nuw i8, ptr %0, i64 304
  %51 = load ptr, ptr %50, align 8, !tbaa !13
  %52 = load i64, ptr %10, align 8, !tbaa !55
  %53 = trunc i64 %52 to i32
  %.not = icmp eq i32 %53, 0
  br i1 %.not, label %._crit_edge, label %.lr.ph.preheader

.lr.ph.preheader:                                 ; preds = %_ZN2cv11bioinspired17MagnoRetinaFilter23_amacrineCellsComputingEPKfS3_.exit
  %54 = load ptr, ptr %38, align 8, !tbaa !12
  %55 = load ptr, ptr %35, align 8, !tbaa !12
  %56 = getelementptr inbounds nuw i8, ptr %51, i64 16
  %57 = load ptr, ptr %56, align 8, !tbaa !12
  br label %.lr.ph

._crit_edge:                                      ; preds = %.lr.ph, %_ZN2cv11bioinspired17MagnoRetinaFilter23_amacrineCellsComputingEPKfS3_.exit
  %58 = getelementptr inbounds nuw i8, ptr %51, i64 8
  ret ptr %58

.lr.ph:                                           ; preds = %.lr.ph.preheader, %.lr.ph
  %.013 = phi i32 [ %65, %.lr.ph ], [ 0, %.lr.ph.preheader ]
  %.0712 = phi ptr [ %61, %.lr.ph ], [ %54, %.lr.ph.preheader ]
  %.0811 = phi ptr [ %59, %.lr.ph ], [ %55, %.lr.ph.preheader ]
  %.0910 = phi ptr [ %64, %.lr.ph ], [ %57, %.lr.ph.preheader ]
  %59 = getelementptr inbounds nuw i8, ptr %.0811, i64 4
  %60 = load float, ptr %.0811, align 4, !tbaa !22
  %61 = getelementptr inbounds nuw i8, ptr %.0712, i64 4
  %62 = load float, ptr %.0712, align 4, !tbaa !22
  %63 = fadd float %60, %62
  %64 = getelementptr inbounds nuw i8, ptr %.0910, i64 4
  store float %63, ptr %.0910, align 4, !tbaa !22
  %65 = add nuw i32 %.013, 1
  %exitcond.not = icmp eq i32 %65, %53
  br i1 %exitcond.not, label %._crit_edge, label %.lr.ph, !llvm.loop !68
}